target datalayout = "e-m:e-p270:32:32-p271:32:32-p272:64:64-i64:64-i128:128-f80:128-n8:16:32:64-S128"
target triple = "x86_64-pc-linux-gnu"

%struct.anon.2 = type { i32, i32, i32, i32 }

@.str.5 = private unnamed_addr constant [33 x i8] c"../openssl/test/safe_math_test.c\00", align 1
@.str.6 = private unnamed_addr constant [4 x i8] c"err\00", align 1
@.str.8 = private unnamed_addr constant [2 x i8] c"r\00", align 1
@.str.49 = private unnamed_addr constant [24 x i8] c"test_muldiv_ints[n].err\00", align 1
@.str.50 = private unnamed_addr constant [5 x i8] c"real\00", align 1
@.str.51 = private unnamed_addr constant [31 x i8] c"%d * %d / %d  r = %d  err = %d\00", align 1

; Function Attrs: inlinehint nounwind uwtable
define internal i32 @safe_add_int(i32 noundef %0, i32 noundef %1, ptr noundef %2) #3 {
  %4 = alloca i32, align 4
  %5 = alloca i32, align 4
  %6 = alloca i32, align 4
  %7 = alloca ptr, align 8
  %8 = alloca i32, align 4
  %9 = alloca i32, align 4
  store i32 %0, ptr %5, align 4, !tbaa !4
  store i32 %1, ptr %6, align 4, !tbaa !4
  store ptr %2, ptr %7, align 8, !tbaa !46
  call void @llvm.lifetime.start.p0(i64 4, ptr %8) #5
  %10 = load i32, ptr %5, align 4, !tbaa !4
  %11 = load i32, ptr %6, align 4, !tbaa !4
  %12 = call { i32, i1 } @llvm.sadd.with.overflow.i32(i32 %10, i32 %11)
  %13 = extractvalue { i32, i1 } %12, 1
  %14 = extractvalue { i32, i1 } %12, 0
  store i32 %14, ptr %8, align 4
  br i1 %13, label %17, label %15

15:                                               ; preds = %3
  %16 = load i32, ptr %8, align 4, !tbaa !4
  store i32 %16, ptr %4, align 4
  store i32 1, ptr %9, align 4
  br label %24

17:                                               ; preds = %3
  %18 = load ptr, ptr %7, align 8, !tbaa !46
  %19 = load i32, ptr %18, align 4, !tbaa !4
  %20 = or i32 %19, 1
  store i32 %20, ptr %18, align 4, !tbaa !4
  %21 = load i32, ptr %5, align 4, !tbaa !4
  %22 = icmp slt i32 %21, 0
  %23 = select i1 %22, i32 -2147483648, i32 2147483647
  store i32 %23, ptr %4, align 4
  store i32 1, ptr %9, align 4
  br label %24

24:                                               ; preds = %17, %15
  call void @llvm.lifetime.end.p0(i64 4, ptr %8) #5
  %25 = load i32, ptr %4, align 4
  ret i32 %25
}

; Function Attrs: inlinehint nounwind uwtable
define internal i32 @safe_mod_int(i32 noundef %0, i32 noundef %1, ptr noundef %2) #3 {
  %4 = alloca i32, align 4
  %5 = alloca i32, align 4
  %6 = alloca i32, align 4
  %7 = alloca ptr, align 8
  store i32 %0, ptr %5, align 4, !tbaa !4
  store i32 %1, ptr %6, align 4, !tbaa !4
  store ptr %2, ptr %7, align 8, !tbaa !46
  %8 = load i32, ptr %6, align 4, !tbaa !4
  %9 = icmp eq i32 %8, 0
  br i1 %9, label %10, label %14

10:                                               ; preds = %3
  %11 = load ptr, ptr %7, align 8, !tbaa !46
  %12 = load i32, ptr %11, align 4, !tbaa !4
  %13 = or i32 %12, 1
  store i32 %13, ptr %11, align 4, !tbaa !4
  store i32 0, ptr %4, align 4
  br label %28

14:                                               ; preds = %3
  %15 = load i32, ptr %6, align 4, !tbaa !4
  %16 = icmp eq i32 %15, -1
  br i1 %16, label %17, label %24

17:                                               ; preds = %14
  %18 = load i32, ptr %5, align 4, !tbaa !4
  %19 = icmp eq i32 %18, -2147483648
  br i1 %19, label %20, label %24

20:                                               ; preds = %17
  %21 = load ptr, ptr %7, align 8, !tbaa !46
  %22 = load i32, ptr %21, align 4, !tbaa !4
  %23 = or i32 %22, 1
  store i32 %23, ptr %21, align 4, !tbaa !4
  store i32 2147483647, ptr %4, align 4
  br label %28

24:                                               ; preds = %17, %14
  %25 = load i32, ptr %5, align 4, !tbaa !4
  %26 = load i32, ptr %6, align 4, !tbaa !4
  %27 = srem i32 %25, %26
  store i32 %27, ptr %4, align 4
  br label %28

28:                                               ; preds = %24, %20, %10
  %29 = load i32, ptr %4, align 4
  ret i32 %29
}

; Function Attrs: inlinehint nounwind uwtable
define internal i32 @safe_div_int(i32 noundef %0, i32 noundef %1, ptr noundef %2) #3 {
  %4 = alloca i32, align 4
  %5 = alloca i32, align 4
  %6 = alloca i32, align 4
  %7 = alloca ptr, align 8
  store i32 %0, ptr %5, align 4, !tbaa !4
  store i32 %1, ptr %6, align 4, !tbaa !4
  store ptr %2, ptr %7, align 8, !tbaa !46
  %8 = load i32, ptr %6, align 4, !tbaa !4
  %9 = icmp eq i32 %8, 0
  br i1 %9, label %10, label %17

10:                                               ; preds = %3
  %11 = load ptr, ptr %7, align 8, !tbaa !46
  %12 = load i32, ptr %11, align 4, !tbaa !4
  %13 = or i32 %12, 1
  store i32 %13, ptr %11, align 4, !tbaa !4
  %14 = load i32, ptr %5, align 4, !tbaa !4
  %15 = icmp slt i32 %14, 0
  %16 = select i1 %15, i32 -2147483648, i32 2147483647
  store i32 %16, ptr %4, align 4
  br label %31

17:                                               ; preds = %3
  %18 = load i32, ptr %6, align 4, !tbaa !4
  %19 = icmp eq i32 %18, -1
  br i1 %19, label %20, label %27

20:                                               ; preds = %17
  %21 = load i32, ptr %5, align 4, !tbaa !4
  %22 = icmp eq i32 %21, -2147483648
  br i1 %22, label %23, label %27

23:                                               ; preds = %20
  %24 = load ptr, ptr %7, align 8, !tbaa !46
  %25 = load i32, ptr %24, align 4, !tbaa !4
  %26 = or i32 %25, 1
  store i32 %26, ptr %24, align 4, !tbaa !4
  store i32 2147483647, ptr %4, align 4
  br label %31

27:                                               ; preds = %20, %17
  %28 = load i32, ptr %5, align 4, !tbaa !4
  %29 = load i32, ptr %6, align 4, !tbaa !4
  %30 = sdiv i32 %28, %29
  store i32 %30, ptr %4, align 4
  br label %31

31:                                               ; preds = %27, %23, %10
  %32 = load i32, ptr %4, align 4
  ret i32 %32
}

; Function Attrs: inlinehint nounwind uwtable
define internal i32 @safe_mul_int(i32 noundef %0, i32 noundef %1, ptr noundef %2) #3 {
  %4 = alloca i32, align 4
  %5 = alloca i32, align 4
  %6 = alloca i32, align 4
  %7 = alloca ptr, align 8
  %8 = alloca i32, align 4
  %9 = alloca i32, align 4
  store i32 %0, ptr %5, align 4, !tbaa !4
  store i32 %1, ptr %6, align 4, !tbaa !4
  store ptr %2, ptr %7, align 8, !tbaa !46
  call void @llvm.lifetime.start.p0(i64 4, ptr %8) #5
  %10 = load i32, ptr %5, align 4, !tbaa !4
  %11 = load i32, ptr %6, align 4, !tbaa !4
  %12 = call { i32, i1 } @llvm.smul.with.overflow.i32(i32 %10, i32 %11)
  %13 = extractvalue { i32, i1 } %12, 1
  %14 = extractvalue { i32, i1 } %12, 0
  store i32 %14, ptr %8, align 4
  br i1 %13, label %17, label %15

15:                                               ; preds = %3
  %16 = load i32, ptr %8, align 4, !tbaa !4
  store i32 %16, ptr %4, align 4
  store i32 1, ptr %9, align 4
  br label %30

17:                                               ; preds = %3
  %18 = load ptr, ptr %7, align 8, !tbaa !46
  %19 = load i32, ptr %18, align 4, !tbaa !4
  %20 = or i32 %19, 1
  store i32 %20, ptr %18, align 4, !tbaa !4
  %21 = load i32, ptr %5, align 4, !tbaa !4
  %22 = icmp slt i32 %21, 0
  %23 = zext i1 %22 to i32
  %24 = load i32, ptr %6, align 4, !tbaa !4
  %25 = icmp slt i32 %24, 0
  %26 = zext i1 %25 to i32
  %27 = xor i32 %23, %26
  %28 = icmp ne i32 %27, 0
  %29 = select i1 %28, i32 -2147483648, i32 2147483647
  store i32 %29, ptr %4, align 4
  store i32 1, ptr %9, align 4
  br label %30

30:                                               ; preds = %17, %15
  call void @llvm.lifetime.end.p0(i64 4, ptr %8) #5
  %31 = load i32, ptr %4, align 4
  ret i32 %31
}

; Function Attrs: inlinehint nounwind uwtable
define internal i32 @safe_muldiv_int(i32 noundef %0, i32 noundef %1, i32 noundef %2, ptr noundef %3) #3 {
  %5 = alloca i32, align 4
  %6 = alloca i32, align 4
  %7 = alloca i32, align 4
  %8 = alloca i32, align 4
  %9 = alloca ptr, align 8
  %10 = alloca i32, align 4
  %11 = alloca i32, align 4
  %12 = alloca i32, align 4
  %13 = alloca i32, align 4
  %14 = alloca i32, align 4
  %15 = alloca i32, align 4
  store i32 %0, ptr %6, align 4, !tbaa !4
  store i32 %1, ptr %7, align 4, !tbaa !4
  store i32 %2, ptr %8, align 4, !tbaa !4
  store ptr %3, ptr %9, align 8, !tbaa !46
  call void @llvm.lifetime.start.p0(i64 4, ptr %10) #5
  store i32 0, ptr %10, align 4, !tbaa !4
  call void @llvm.lifetime.start.p0(i64 4, ptr %11) #5
  call void @llvm.lifetime.start.p0(i64 4, ptr %12) #5
  call void @llvm.lifetime.start.p0(i64 4, ptr %13) #5
  call void @llvm.lifetime.start.p0(i64 4, ptr %14) #5
  %16 = load i32, ptr %8, align 4, !tbaa !4
  %17 = icmp eq i32 %16, 0
  br i1 %17, label %18, label %30

18:                                               ; preds = %4
  %19 = load ptr, ptr %9, align 8, !tbaa !46
  %20 = load i32, ptr %19, align 4, !tbaa !4
  %21 = or i32 %20, 1
  store i32 %21, ptr %19, align 4, !tbaa !4
  %22 = load i32, ptr %6, align 4, !tbaa !4
  %23 = icmp eq i32 %22, 0
  br i1 %23, label %27, label %24

24:                                               ; preds = %18
  %25 = load i32, ptr %7, align 4, !tbaa !4
  %26 = icmp eq i32 %25, 0
  br label %27

27:                                               ; preds = %24, %18
  %28 = phi i1 [ true, %18 ], [ %26, %24 ]
  %29 = select i1 %28, i32 0, i32 2147483647
  store i32 %29, ptr %5, align 4
  store i32 1, ptr %15, align 4
  br label %74

30:                                               ; preds = %4
  %31 = load i32, ptr %6, align 4, !tbaa !4
  %32 = load i32, ptr %7, align 4, !tbaa !4
  %33 = call i32 @safe_mul_int(i32 noundef %31, i32 noundef %32, ptr noundef %10)
  store i32 %33, ptr %13, align 4, !tbaa !4
  %34 = load i32, ptr %10, align 4, !tbaa !4
  %35 = icmp ne i32 %34, 0
  br i1 %35, label %41, label %36

36:                                               ; preds = %30
  %37 = load i32, ptr %13, align 4, !tbaa !4
  %38 = load i32, ptr %8, align 4, !tbaa !4
  %39 = load ptr, ptr %9, align 8, !tbaa !46
  %40 = call i32 @safe_div_int(i32 noundef %37, i32 noundef %38, ptr noundef %39)
  store i32 %40, ptr %5, align 4
  store i32 1, ptr %15, align 4
  br label %74

41:                                               ; preds = %30
  %42 = load i32, ptr %7, align 4, !tbaa !4
  %43 = load i32, ptr %6, align 4, !tbaa !4
  %44 = icmp sgt i32 %42, %43
  br i1 %44, label %45, label %49

45:                                               ; preds = %41
  %46 = load i32, ptr %7, align 4, !tbaa !4
  store i32 %46, ptr %13, align 4, !tbaa !4
  %47 = load i32, ptr %6, align 4, !tbaa !4
  store i32 %47, ptr %7, align 4, !tbaa !4
  %48 = load i32, ptr %13, align 4, !tbaa !4
  store i32 %48, ptr %6, align 4, !tbaa !4
  br label %49

49:                                               ; preds = %45, %41
  %50 = load i32, ptr %6, align 4, !tbaa !4
  %51 = load i32, ptr %8, align 4, !tbaa !4
  %52 = load ptr, ptr %9, align 8, !tbaa !46
  %53 = call i32 @safe_div_int(i32 noundef %50, i32 noundef %51, ptr noundef %52)
  store i32 %53, ptr %11, align 4, !tbaa !4
  %54 = load i32, ptr %6, align 4, !tbaa !4
  %55 = load i32, ptr %8, align 4, !tbaa !4
  %56 = load ptr, ptr %9, align 8, !tbaa !46
  %57 = call i32 @safe_mod_int(i32 noundef %54, i32 noundef %55, ptr noundef %56)
  store i32 %57, ptr %12, align 4, !tbaa !4
  %58 = load i32, ptr %12, align 4, !tbaa !4
  %59 = load i32, ptr %7, align 4, !tbaa !4
  %60 = load ptr, ptr %9, align 8, !tbaa !46
  %61 = call i32 @safe_mul_int(i32 noundef %58, i32 noundef %59, ptr noundef %60)
  store i32 %61, ptr %13, align 4, !tbaa !4
  %62 = load i32, ptr %11, align 4, !tbaa !4
  %63 = load i32, ptr %7, align 4, !tbaa !4
  %64 = load ptr, ptr %9, align 8, !tbaa !46
  %65 = call i32 @safe_mul_int(i32 noundef %62, i32 noundef %63, ptr noundef %64)
  store i32 %65, ptr %14, align 4, !tbaa !4
  %66 = load i32, ptr %13, align 4, !tbaa !4
  %67 = load i32, ptr %8, align 4, !tbaa !4
  %68 = load ptr, ptr %9, align 8, !tbaa !46
  %69 = call i32 @safe_div_int(i32 noundef %66, i32 noundef %67, ptr noundef %68)
  store i32 %69, ptr %11, align 4, !tbaa !4
  %70 = load i32, ptr %14, align 4, !tbaa !4
  %71 = load i32, ptr %11, align 4, !tbaa !4
  %72 = load ptr, ptr %9, align 8, !tbaa !46
  %73 = call i32 @safe_add_int(i32 noundef %70, i32 noundef %71, ptr noundef %72)
  store i32 %73, ptr %5, align 4
  store i32 1, ptr %15, align 4
  br label %74

74:                                               ; preds = %49, %36, %27
  call void @llvm.lifetime.end.p0(i64 4, ptr %14) #5
  call void @llvm.lifetime.end.p0(i64 4, ptr %13) #5
  call void @llvm.lifetime.end.p0(i64 4, ptr %12) #5
  call void @llvm.lifetime.end.p0(i64 4, ptr %11) #5
  call void @llvm.lifetime.end.p0(i64 4, ptr %10) #5
  %75 = load i32, ptr %5, align 4
  ret i32 %75
}

; Function Attrs: nounwind uwtable
define internal i32 @test_int_muldiv(i32 noundef %0) #0 {
  %2 = alloca i32, align 4
  %3 = alloca i32, align 4
  %4 = alloca i32, align 4
  %5 = alloca i32, align 4
  %6 = alloca i32, align 4
  %7 = alloca i32, align 4
  %8 = alloca i32, align 4
  %9 = alloca i32, align 4
  %10 = alloca i32, align 4
  store i32 %0, ptr %3, align 4, !tbaa !4
  call void @llvm.lifetime.start.p0(i64 4, ptr %4) #5
  store i32 0, ptr %4, align 4, !tbaa !4
  call void @llvm.lifetime.start.p0(i64 4, ptr %5) #5
  call void @llvm.lifetime.start.p0(i64 4, ptr %6) #5
  store i32 0, ptr %6, align 4, !tbaa !4
  call void @llvm.lifetime.start.p0(i64 4, ptr %7) #5
  %11 = load i32, ptr %3, align 4, !tbaa !4
  %12 = sext i32 %11 to i64
  %13 = getelementptr inbounds [14 x %struct.anon.2], ptr @test_muldiv_ints, i64 0, i64 %12
  %14 = getelementptr inbounds nuw %struct.anon.2, ptr %13, i32 0, i32 0
  %15 = load i32, ptr %14, align 16, !tbaa !41
  store i32 %15, ptr %7, align 4, !tbaa !4
  call void @llvm.lifetime.start.p0(i64 4, ptr %8) #5
  %16 = load i32, ptr %3, align 4, !tbaa !4
  %17 = sext i32 %16 to i64
  %18 = getelementptr inbounds [14 x %struct.anon.2], ptr @test_muldiv_ints, i64 0, i64 %17
  %19 = getelementptr inbounds nuw %struct.anon.2, ptr %18, i32 0, i32 1
  %20 = load i32, ptr %19, align 4, !tbaa !43
  store i32 %20, ptr %8, align 4, !tbaa !4
  call void @llvm.lifetime.start.p0(i64 4, ptr %9) #5
  %21 = load i32, ptr %3, align 4, !tbaa !4
  %22 = sext i32 %21 to i64
  %23 = getelementptr inbounds [14 x %struct.anon.2], ptr @test_muldiv_ints, i64 0, i64 %22
  %24 = getelementptr inbounds nuw %struct.anon.2, ptr %23, i32 0, i32 2
  %25 = load i32, ptr %24, align 8, !tbaa !44
  store i32 %25, ptr %9, align 4, !tbaa !4
  %26 = load i32, ptr %7, align 4, !tbaa !4
  %27 = load i32, ptr %8, align 4, !tbaa !4
  %28 = load i32, ptr %9, align 4, !tbaa !4
  %29 = call i32 @safe_muldiv_int(i32 noundef %26, i32 noundef %27, i32 noundef %28, ptr noundef %4)
  store i32 %29, ptr %5, align 4, !tbaa !4
  %30 = load i32, ptr %9, align 4, !tbaa !4
  %31 = icmp ne i32 %30, 0
  br i1 %31, label %32, label %42

32:                                               ; preds = %1
  %33 = load i32, ptr %7, align 4, !tbaa !4
  %34 = sext i32 %33 to i64
  %35 = load i32, ptr %8, align 4, !tbaa !4
  %36 = sext i32 %35 to i64
  %37 = mul nsw i64 %34, %36
  %38 = load i32, ptr %9, align 4, !tbaa !4
  %39 = sext i32 %38 to i64
  %40 = sdiv i64 %37, %39
  %41 = trunc i64 %40 to i32
  store i32 %41, ptr %6, align 4, !tbaa !4
  br label %42

42:                                               ; preds = %32, %1
  %43 = load i32, ptr %4, align 4, !tbaa !4
  %44 = load i32, ptr %3, align 4, !tbaa !4
  %45 = sext i32 %44 to i64
  %46 = getelementptr inbounds [14 x %struct.anon.2], ptr @test_muldiv_ints, i64 0, i64 %45
  %47 = getelementptr inbounds nuw %struct.anon.2, ptr %46, i32 0, i32 3
  %48 = load i32, ptr %47, align 4, !tbaa !45
  %49 = call i32 @test_int_eq(ptr noundef @.str.5, i32 noundef 324, ptr noundef @.str.6, ptr noundef @.str.49, i32 noundef %43, i32 noundef %48)
  %50 = icmp ne i32 %49, 0
  br i1 %50, label %51, label %59

51:                                               ; preds = %42
  %52 = load i32, ptr %4, align 4, !tbaa !4
  %53 = icmp ne i32 %52, 0
  br i1 %53, label %65, label %54

54:                                               ; preds = %51
  %55 = load i32, ptr %5, align 4, !tbaa !4
  %56 = load i32, ptr %6, align 4, !tbaa !4
  %57 = call i32 @test_int_eq(ptr noundef @.str.5, i32 noundef 325, ptr noundef @.str.8, ptr noundef @.str.50, i32 noundef %55, i32 noundef %56)
  %58 = icmp ne i32 %57, 0
  br i1 %58, label %65, label %59

59:                                               ; preds = %54, %42
  %60 = load i32, ptr %7, align 4, !tbaa !4
  %61 = load i32, ptr %8, align 4, !tbaa !4
  %62 = load i32, ptr %9, align 4, !tbaa !4
  %63 = load i32, ptr %5, align 4, !tbaa !4
  %64 = load i32, ptr %4, align 4, !tbaa !4
  call void (ptr, i32, ptr, ...) @test_info(ptr noundef @.str.5, i32 noundef 326, ptr noundef @.str.51, i32 noundef %60, i32 noundef %61, i32 noundef %62, i32 noundef %63, i32 noundef %64)
  store i32 0, ptr %2, align 4
  store i32 1, ptr %10, align 4
  br label %66

65:                                               ; preds = %54, %51
  store i32 1, ptr %2, align 4
  store i32 1, ptr %10, align 4
  br label %66

66:                                               ; preds = %65, %59
  call void @llvm.lifetime.end.p0(i64 4, ptr %9) #5
  call void @llvm.lifetime.end.p0(i64 4, ptr %8) #5
  call void @llvm.lifetime.end.p0(i64 4, ptr %7) #5
  call void @llvm.lifetime.end.p0(i64 4, ptr %6) #5
  call void @llvm.lifetime.end.p0(i64 4, ptr %5) #5
  call void @llvm.lifetime.end.p0(i64 4, ptr %4) #5
  %67 = load i32, ptr %2, align 4
  ret i32 %67
}