; Function Attrs: nounwind uwtable
define internal range(i32 0, 2) i32 @test_int_muldiv(i32 noundef %0) #0 {
  %2 = sext i32 %0 to i64
  %3 = getelementptr inbounds [14 x %struct.anon.2], ptr @test_muldiv_ints, i64 0, i64 %2
  %4 = load i32, ptr %3, align 16, !tbaa !39
  %5 = getelementptr inbounds nuw i8, ptr %3, i64 4
  %6 = load i32, ptr %5, align 4, !tbaa !41
  %7 = getelementptr inbounds nuw i8, ptr %3, i64 8
  %8 = load i32, ptr %7, align 8, !tbaa !42
  %9 = icmp eq i32 %8, 0
  br i1 %9, label %safe_muldiv_int.exit, label %10

10:                                               ; preds = %1
  %11 = tail call { i32, i1 } @llvm.smul.with.overflow.i32(i32 %4, i32 %6)
  %12 = extractvalue { i32, i1 } %11, 1
  br i1 %12, label %19, label %13

13:                                               ; preds = %10
  %14 = extractvalue { i32, i1 } %11, 0
  %15 = icmp eq i32 %8, -1
  %16 = icmp eq i32 %14, -2147483648
  %or.cond.i.i = and i1 %15, %16
  br i1 %or.cond.i.i, label %48, label %17

17:                                               ; preds = %13
  %18 = sdiv i32 %14, %8
  br label %48

19:                                               ; preds = %10
  %spec.select.i = tail call i32 @llvm.smin.i32(i32 %6, i32 %4)
  %spec.select38.i = tail call i32 @llvm.smax.i32(i32 %6, i32 %4)
  %20 = icmp eq i32 %8, -1
  %21 = icmp eq i32 %spec.select38.i, -2147483648
  %or.cond.i40.i = and i1 %21, %20
  br i1 %or.cond.i40.i, label %safe_mod_int.exit.i, label %22

22:                                               ; preds = %19
  %23 = sdiv i32 %spec.select38.i, %8
  %24 = srem i32 %spec.select38.i, %8
  br label %safe_mod_int.exit.i

safe_mod_int.exit.i:                              ; preds = %19, %22
  %.032 = phi i32 [ 0, %22 ], [ 1, %19 ]
  %.0.i4164.i = phi i32 [ %23, %22 ], [ 2147483647, %19 ]
  %.0.i44.i = phi i32 [ %24, %22 ], [ 2147483647, %19 ]
  %25 = tail call { i32, i1 } @llvm.smul.with.overflow.i32(i32 %.0.i44.i, i32 %spec.select.i)
  %26 = extractvalue { i32, i1 } %25, 1
  %.lobit7.i46.i = xor i32 %.0.i44.i, %spec.select.i
  %.not.i47.i = icmp sgt i32 %.lobit7.i46.i, -1
  %27 = select i1 %.not.i47.i, i32 2147483647, i32 -2147483648
  %28 = extractvalue { i32, i1 } %25, 0
  %.0.i45.i = select i1 %26, i32 %27, i32 %28
  %29 = tail call { i32, i1 } @llvm.smul.with.overflow.i32(i32 %.0.i4164.i, i32 %spec.select.i)
  %30 = extractvalue { i32, i1 } %29, 1
  %.lobit7.i50.i = xor i32 %.0.i4164.i, %spec.select.i
  %.not.i51.i = icmp sgt i32 %.lobit7.i50.i, -1
  %31 = select i1 %.not.i51.i, i32 2147483647, i32 -2147483648
  %32 = extractvalue { i32, i1 } %29, 0
  %.0.i49.i = select i1 %30, i32 %31, i32 %32
  %33 = icmp eq i32 %.0.i45.i, -2147483648
  %or.cond.i53.i = and i1 %20, %33
  br i1 %or.cond.i53.i, label %safe_div_int.exit55.i, label %34

34:                                               ; preds = %safe_mod_int.exit.i
  %35 = or i1 %30, %26
  %.2 = select i1 %35, i32 1, i32 %.032
  %36 = sdiv i32 %.0.i45.i, %8
  br label %safe_div_int.exit55.i

safe_div_int.exit55.i:                            ; preds = %safe_mod_int.exit.i, %34
  %.3 = phi i32 [ %.2, %34 ], [ 1, %safe_mod_int.exit.i ]
  %.0.i54.i = phi i32 [ %36, %34 ], [ 2147483647, %safe_mod_int.exit.i ]
  %37 = tail call { i32, i1 } @llvm.sadd.with.overflow.i32(i32 %.0.i49.i, i32 %.0.i54.i)
  %38 = extractvalue { i32, i1 } %37, 1
  br i1 %38, label %41, label %39

39:                                               ; preds = %safe_div_int.exit55.i
  %40 = extractvalue { i32, i1 } %37, 0
  br label %48

41:                                               ; preds = %safe_div_int.exit55.i
  %42 = icmp slt i32 %.0.i49.i, 0
  %43 = select i1 %42, i32 -2147483648, i32 2147483647
  br label %48

safe_muldiv_int.exit:                             ; preds = %1
  %44 = icmp eq i32 %4, 0
  %45 = icmp eq i32 %6, 0
  %46 = or i1 %44, %45
  %47 = select i1 %46, i32 0, i32 2147483647
  br label %55

48:                                               ; preds = %13, %17, %39, %41
  %.4.ph = phi i32 [ 1, %13 ], [ 0, %17 ], [ %.3, %39 ], [ 1, %41 ]
  %.0.i.ph = phi i32 [ 2147483647, %13 ], [ %18, %17 ], [ %40, %39 ], [ %43, %41 ]
  %49 = sext i32 %4 to i64
  %50 = sext i32 %6 to i64
  %51 = mul nsw i64 %50, %49
  %52 = sext i32 %8 to i64
  %53 = sdiv i64 %51, %52
  %54 = trunc i64 %53 to i32
  br label %55

55:                                               ; preds = %safe_muldiv_int.exit, %48
  %.0.i38 = phi i32 [ %.0.i.ph, %48 ], [ %47, %safe_muldiv_int.exit ]
  %.436 = phi i32 [ %.4.ph, %48 ], [ 1, %safe_muldiv_int.exit ]
  %.018 = phi i32 [ %54, %48 ], [ 0, %safe_muldiv_int.exit ]
  %56 = getelementptr inbounds nuw i8, ptr %3, i64 12
  %57 = load i32, ptr %56, align 4, !tbaa !43
  %58 = tail call i32 @test_int_eq(ptr noundef nonnull @.str.5, i32 noundef 324, ptr noundef nonnull @.str.6, ptr noundef nonnull @.str.49, i32 noundef %.436, i32 noundef %57) #4
  %.not20 = icmp eq i32 %58, 0
  br i1 %.not20, label %62, label %59

59:                                               ; preds = %55
  %.not21 = icmp eq i32 %.436, 0
  br i1 %.not21, label %60, label %63

60:                                               ; preds = %59
  %61 = tail call i32 @test_int_eq(ptr noundef nonnull @.str.5, i32 noundef 325, ptr noundef nonnull @.str.8, ptr noundef nonnull @.str.50, i32 noundef %.0.i38, i32 noundef %.018) #4
  %.not22 = icmp eq i32 %61, 0
  br i1 %.not22, label %62, label %63

62:                                               ; preds = %60, %55
  tail call void (ptr, i32, ptr, ...) @test_info(ptr noundef nonnull @.str.5, i32 noundef 326, ptr noundef nonnull @.str.51, i32 noundef %4, i32 noundef %6, i32 noundef %8, i32 noundef %.0.i38, i32 noundef %.436) #4
  br label %63

63:                                               ; preds = %59, %60, %62
  %.0 = phi i32 [ 0, %62 ], [ 1, %60 ], [ 1, %59 ]
  ret i32 %.0
}